(dp0
Vengine
p1
Vpdflatex
p2
sVpackages
p3
c__builtin__
set
p4
((lp5
Vxcolor
p6
aVlmodern
p7
aVlistings
p8
atp9
Rp10
sVfiles_with_guttermarks
p11
g4
((lp12
V/Volumes/Local/Users/amaxwell/NIMS/docs/fitpc.tex
p13
aV/Volumes/Local/Users/amaxwell/NIMS/docs/./fitpc.tex
p14
aS'fitpc.tex'
p15
atp16
Rp17
sVsynctex
p18
I01
s.